target datalayout = "e-m:e-p270:32:32-p271:32:32-p272:64:64-i64:64-i128:128-f80:128-n8:16:32:64-S128"
target triple = "x86_64-pc-linux-gnu"

%struct.SN_env = type { ptr, i32, i32, i32, i32, i32, ptr, ptr }

@s_72 = internal constant [10 x i8] c"\CE\B1\CE\B3\CE\B1\CE\BC\CE\B5", align 1
@s_73 = internal constant [8 x i8] c"\CE\B1\CE\B3\CE\B1\CE\BC", align 1
@s_74 = internal constant [6 x i8] c"\CE\B1\CE\BC\CE\B5", align 1
@s_75 = internal constant [4 x i8] c"\CE\B1\CE\BC", align 1

; Function Attrs: nounwind uwtable
define internal i32 @r_step5a(ptr noundef %0) #0 {
  %2 = alloca i32, align 4
  %3 = alloca ptr, align 8
  %4 = alloca i32, align 4
  %5 = alloca i32, align 4
  %6 = alloca i32, align 4
  %7 = alloca i32, align 4
  %8 = alloca i32, align 4
  %9 = alloca i32, align 4
  %10 = alloca i32, align 4
  store ptr %0, ptr %3, align 8
  call void @llvm.lifetime.start.p0(i64 4, ptr %4) #3
  %11 = load ptr, ptr %3, align 8
  %12 = getelementptr inbounds nuw %struct.SN_env, ptr %11, i32 0, i32 2
  %13 = load i32, ptr %12, align 4
  %14 = load ptr, ptr %3, align 8
  %15 = getelementptr inbounds nuw %struct.SN_env, ptr %14, i32 0, i32 1
  %16 = load i32, ptr %15, align 8
  %17 = sub i32 %13, %16
  store i32 %17, ptr %4, align 4
  %18 = load ptr, ptr %3, align 8
  %19 = call i32 @eq_s_b(ptr noundef %18, i32 noundef 10, ptr noundef @s_72)
  %20 = icmp ne i32 %19, 0
  br i1 %20, label %22, label %21

21:                                               ; preds = %1
  br label %42

22:                                               ; preds = %1
  %23 = load ptr, ptr %3, align 8
  %24 = getelementptr inbounds nuw %struct.SN_env, ptr %23, i32 0, i32 1
  %25 = load i32, ptr %24, align 8
  %26 = load ptr, ptr %3, align 8
  %27 = getelementptr inbounds nuw %struct.SN_env, ptr %26, i32 0, i32 3
  %28 = load i32, ptr %27, align 8
  %29 = icmp sgt i32 %25, %28
  br i1 %29, label %30, label %31

30:                                               ; preds = %22
  br label %42

31:                                               ; preds = %22
  call void @llvm.lifetime.start.p0(i64 4, ptr %5) #3
  %32 = load ptr, ptr %3, align 8
  %33 = call i32 @slice_from_s(ptr noundef %32, i32 noundef 8, ptr noundef @s_73)
  store i32 %33, ptr %5, align 4
  %34 = load i32, ptr %5, align 4
  %35 = icmp slt i32 %34, 0
  br i1 %35, label %36, label %38

36:                                               ; preds = %31
  %37 = load i32, ptr %5, align 4
  store i32 %37, ptr %2, align 4
  store i32 1, ptr %6, align 4
  br label %39

38:                                               ; preds = %31
  store i32 0, ptr %6, align 4
  br label %39

39:                                               ; preds = %38, %36
  call void @llvm.lifetime.end.p0(i64 4, ptr %5) #3
  %40 = load i32, ptr %6, align 4
  switch i32 %40, label %50 [
    i32 0, label %41
  ]

41:                                               ; preds = %39
  br label %42

42:                                               ; preds = %41, %30, %21
  %43 = load ptr, ptr %3, align 8
  %44 = getelementptr inbounds nuw %struct.SN_env, ptr %43, i32 0, i32 2
  %45 = load i32, ptr %44, align 4
  %46 = load i32, ptr %4, align 4
  %47 = sub i32 %45, %46
  %48 = load ptr, ptr %3, align 8
  %49 = getelementptr inbounds nuw %struct.SN_env, ptr %48, i32 0, i32 1
  store i32 %47, ptr %49, align 8
  store i32 0, ptr %6, align 4
  br label %50

50:                                               ; preds = %42, %39
  call void @llvm.lifetime.end.p0(i64 4, ptr %4) #3
  %51 = load i32, ptr %6, align 4
  switch i32 %51, label %188 [
    i32 0, label %52
    i32 1, label %186
  ]

52:                                               ; preds = %50
  call void @llvm.lifetime.start.p0(i64 4, ptr %7) #3
  %53 = load ptr, ptr %3, align 8
  %54 = getelementptr inbounds nuw %struct.SN_env, ptr %53, i32 0, i32 2
  %55 = load i32, ptr %54, align 4
  %56 = load ptr, ptr %3, align 8
  %57 = getelementptr inbounds nuw %struct.SN_env, ptr %56, i32 0, i32 1
  %58 = load i32, ptr %57, align 8
  %59 = sub i32 %55, %58
  store i32 %59, ptr %7, align 4
  %60 = load ptr, ptr %3, align 8
  %61 = getelementptr inbounds nuw %struct.SN_env, ptr %60, i32 0, i32 1
  %62 = load i32, ptr %61, align 8
  %63 = load ptr, ptr %3, align 8
  %64 = getelementptr inbounds nuw %struct.SN_env, ptr %63, i32 0, i32 5
  store i32 %62, ptr %64, align 8
  %65 = load ptr, ptr %3, align 8
  %66 = getelementptr inbounds nuw %struct.SN_env, ptr %65, i32 0, i32 1
  %67 = load i32, ptr %66, align 8
  %68 = sub i32 %67, 9
  %69 = load ptr, ptr %3, align 8
  %70 = getelementptr inbounds nuw %struct.SN_env, ptr %69, i32 0, i32 3
  %71 = load i32, ptr %70, align 8
  %72 = icmp sle i32 %68, %71
  br i1 %72, label %86, label %73

73:                                               ; preds = %52
  %74 = load ptr, ptr %3, align 8
  %75 = getelementptr inbounds nuw %struct.SN_env, ptr %74, i32 0, i32 0
  %76 = load ptr, ptr %75, align 8
  %77 = load ptr, ptr %3, align 8
  %78 = getelementptr inbounds nuw %struct.SN_env, ptr %77, i32 0, i32 1
  %79 = load i32, ptr %78, align 8
  %80 = sub i32 %79, 1
  %81 = sext i32 %80 to i64
  %82 = getelementptr inbounds i8, ptr %76, i64 %81
  %83 = load i8, ptr %82, align 1
  %84 = zext i8 %83 to i32
  %85 = icmp ne i32 %84, 181
  br i1 %85, label %86, label %87

86:                                               ; preds = %73, %52
  br label %112

87:                                               ; preds = %73
  %88 = load ptr, ptr %3, align 8
  %89 = call i32 @find_among_b(ptr noundef %88, ptr noundef @a_35, i32 noundef 5)
  %90 = icmp ne i32 %89, 0
  br i1 %90, label %92, label %91

91:                                               ; preds = %87
  br label %112

92:                                               ; preds = %87
  %93 = load ptr, ptr %3, align 8
  %94 = getelementptr inbounds nuw %struct.SN_env, ptr %93, i32 0, i32 1
  %95 = load i32, ptr %94, align 8
  %96 = load ptr, ptr %3, align 8
  %97 = getelementptr inbounds nuw %struct.SN_env, ptr %96, i32 0, i32 4
  store i32 %95, ptr %97, align 4
  call void @llvm.lifetime.start.p0(i64 4, ptr %8) #3
  %98 = load ptr, ptr %3, align 8
  %99 = call i32 @slice_del(ptr noundef %98)
  store i32 %99, ptr %8, align 4
  %100 = load i32, ptr %8, align 4
  %101 = icmp slt i32 %100, 0
  br i1 %101, label %102, label %104

102:                                              ; preds = %92
  %103 = load i32, ptr %8, align 4
  store i32 %103, ptr %2, align 4
  store i32 1, ptr %6, align 4
  br label %105

104:                                              ; preds = %92
  store i32 0, ptr %6, align 4
  br label %105

105:                                              ; preds = %104, %102
  call void @llvm.lifetime.end.p0(i64 4, ptr %8) #3
  %106 = load i32, ptr %6, align 4
  switch i32 %106, label %120 [
    i32 0, label %107
  ]

107:                                              ; preds = %105
  %108 = load ptr, ptr %3, align 8
  %109 = getelementptr inbounds nuw %struct.SN_env, ptr %108, i32 0, i32 7
  %110 = load ptr, ptr %109, align 8
  %111 = getelementptr inbounds i32, ptr %110, i64 0
  store i32 0, ptr %111, align 4
  br label %112

112:                                              ; preds = %107, %91, %86
  %113 = load ptr, ptr %3, align 8
  %114 = getelementptr inbounds nuw %struct.SN_env, ptr %113, i32 0, i32 2
  %115 = load i32, ptr %114, align 4
  %116 = load i32, ptr %7, align 4
  %117 = sub i32 %115, %116
  %118 = load ptr, ptr %3, align 8
  %119 = getelementptr inbounds nuw %struct.SN_env, ptr %118, i32 0, i32 1
  store i32 %117, ptr %119, align 8
  store i32 0, ptr %6, align 4
  br label %120

120:                                              ; preds = %112, %105
  call void @llvm.lifetime.end.p0(i64 4, ptr %7) #3
  %121 = load i32, ptr %6, align 4
  switch i32 %121, label %188 [
    i32 0, label %122
    i32 1, label %186
  ]

122:                                              ; preds = %120
  %123 = load ptr, ptr %3, align 8
  %124 = getelementptr inbounds nuw %struct.SN_env, ptr %123, i32 0, i32 1
  %125 = load i32, ptr %124, align 8
  %126 = load ptr, ptr %3, align 8
  %127 = getelementptr inbounds nuw %struct.SN_env, ptr %126, i32 0, i32 5
  store i32 %125, ptr %127, align 8
  %128 = load ptr, ptr %3, align 8
  %129 = call i32 @eq_s_b(ptr noundef %128, i32 noundef 6, ptr noundef @s_74)
  %130 = icmp ne i32 %129, 0
  br i1 %130, label %132, label %131

131:                                              ; preds = %122
  store i32 0, ptr %2, align 4
  br label %186

132:                                              ; preds = %122
  %133 = load ptr, ptr %3, align 8
  %134 = getelementptr inbounds nuw %struct.SN_env, ptr %133, i32 0, i32 1
  %135 = load i32, ptr %134, align 8
  %136 = load ptr, ptr %3, align 8
  %137 = getelementptr inbounds nuw %struct.SN_env, ptr %136, i32 0, i32 4
  store i32 %135, ptr %137, align 4
  call void @llvm.lifetime.start.p0(i64 4, ptr %9) #3
  %138 = load ptr, ptr %3, align 8
  %139 = call i32 @slice_del(ptr noundef %138)
  store i32 %139, ptr %9, align 4
  %140 = load i32, ptr %9, align 4
  %141 = icmp slt i32 %140, 0
  br i1 %141, label %142, label %144

142:                                              ; preds = %132
  %143 = load i32, ptr %9, align 4
  store i32 %143, ptr %2, align 4
  store i32 1, ptr %6, align 4
  br label %145

144:                                              ; preds = %132
  store i32 0, ptr %6, align 4
  br label %145

145:                                              ; preds = %144, %142
  call void @llvm.lifetime.end.p0(i64 4, ptr %9) #3
  %146 = load i32, ptr %6, align 4
  switch i32 %146, label %188 [
    i32 0, label %147
    i32 1, label %186
  ]

147:                                              ; preds = %145
  %148 = load ptr, ptr %3, align 8
  %149 = getelementptr inbounds nuw %struct.SN_env, ptr %148, i32 0, i32 7
  %150 = load ptr, ptr %149, align 8
  %151 = getelementptr inbounds i32, ptr %150, i64 0
  store i32 0, ptr %151, align 4
  %152 = load ptr, ptr %3, align 8
  %153 = getelementptr inbounds nuw %struct.SN_env, ptr %152, i32 0, i32 1
  %154 = load i32, ptr %153, align 8
  %155 = load ptr, ptr %3, align 8
  %156 = getelementptr inbounds nuw %struct.SN_env, ptr %155, i32 0, i32 5
  store i32 %154, ptr %156, align 8
  %157 = load ptr, ptr %3, align 8
  %158 = getelementptr inbounds nuw %struct.SN_env, ptr %157, i32 0, i32 1
  %159 = load i32, ptr %158, align 8
  %160 = load ptr, ptr %3, align 8
  %161 = getelementptr inbounds nuw %struct.SN_env, ptr %160, i32 0, i32 4
  store i32 %159, ptr %161, align 4
  %162 = load ptr, ptr %3, align 8
  %163 = call i32 @find_among_b(ptr noundef %162, ptr noundef @a_36, i32 noundef 12)
  %164 = icmp ne i32 %163, 0
  br i1 %164, label %166, label %165

165:                                              ; preds = %147
  store i32 0, ptr %2, align 4
  br label %186

166:                                              ; preds = %147
  %167 = load ptr, ptr %3, align 8
  %168 = getelementptr inbounds nuw %struct.SN_env, ptr %167, i32 0, i32 1
  %169 = load i32, ptr %168, align 8
  %170 = load ptr, ptr %3, align 8
  %171 = getelementptr inbounds nuw %struct.SN_env, ptr %170, i32 0, i32 3
  %172 = load i32, ptr %171, align 8
  %173 = icmp sgt i32 %169, %172
  br i1 %173, label %174, label %175

174:                                              ; preds = %166
  store i32 0, ptr %2, align 4
  br label %186

175:                                              ; preds = %166
  call void @llvm.lifetime.start.p0(i64 4, ptr %10) #3
  %176 = load ptr, ptr %3, align 8
  %177 = call i32 @slice_from_s(ptr noundef %176, i32 noundef 4, ptr noundef @s_75)
  store i32 %177, ptr %10, align 4
  %178 = load i32, ptr %10, align 4
  %179 = icmp slt i32 %178, 0
  br i1 %179, label %180, label %182

180:                                              ; preds = %175
  %181 = load i32, ptr %10, align 4
  store i32 %181, ptr %2, align 4
  store i32 1, ptr %6, align 4
  br label %183

182:                                              ; preds = %175
  store i32 0, ptr %6, align 4
  br label %183

183:                                              ; preds = %182, %180
  call void @llvm.lifetime.end.p0(i64 4, ptr %10) #3
  %184 = load i32, ptr %6, align 4
  switch i32 %184, label %188 [
    i32 0, label %185
    i32 1, label %186
  ]

185:                                              ; preds = %183
  store i32 1, ptr %2, align 4
  br label %186

186:                                              ; preds = %185, %183, %174, %165, %145, %131, %120, %50
  %187 = load i32, ptr %2, align 4
  ret i32 %187

188:                                              ; preds = %183, %145, %120, %50
  unreachable
}