; Function Attrs: nounwind uwtable
define internal fastcc i32 @r_step5a(ptr noundef %0) unnamed_addr #0 {
  %2 = getelementptr inbounds nuw i8, ptr %0, i64 12
  %3 = load i32, ptr %2, align 4
  %4 = getelementptr inbounds nuw i8, ptr %0, i64 8
  %5 = load i32, ptr %4, align 8
  %.neg = sub i32 %5, %3
  %6 = tail call i32 @eq_s_b(ptr noundef %0, i32 noundef 10, ptr noundef nonnull @s_72) #2
  %.not = icmp eq i32 %6, 0
  br i1 %.not, label %15, label %7

7:                                                ; preds = %1
  %8 = load i32, ptr %4, align 8
  %9 = getelementptr inbounds nuw i8, ptr %0, i64 16
  %10 = load i32, ptr %9, align 8
  %11 = icmp sgt i32 %8, %10
  br i1 %11, label %15, label %12

12:                                               ; preds = %7
  %13 = tail call i32 @slice_from_s(ptr noundef nonnull %0, i32 noundef 8, ptr noundef nonnull @s_73) #2
  %14 = icmp sgt i32 %13, -1
  br i1 %14, label %15, label %59

15:                                               ; preds = %1, %7, %12
  %16 = load i32, ptr %2, align 4
  %17 = add i32 %16, %.neg
  store i32 %17, ptr %4, align 8
  %18 = getelementptr inbounds nuw i8, ptr %0, i64 24
  store i32 %17, ptr %18, align 8
  %19 = add i32 %17, -9
  %20 = getelementptr inbounds nuw i8, ptr %0, i64 16
  %21 = load i32, ptr %20, align 8
  %.not64 = icmp sgt i32 %19, %21
  br i1 %.not64, label %22, label %38

22:                                               ; preds = %15
  %23 = load ptr, ptr %0, align 8
  %24 = add i32 %17, -1
  %25 = sext i32 %24 to i64
  %26 = getelementptr inbounds i8, ptr %23, i64 %25
  %27 = load i8, ptr %26, align 1
  %.not65 = icmp eq i8 %27, -75
  br i1 %.not65, label %28, label %38

28:                                               ; preds = %22
  %29 = tail call i32 @find_among_b(ptr noundef nonnull %0, ptr noundef nonnull @a_35, i32 noundef 5) #2
  %.not66 = icmp eq i32 %29, 0
  br i1 %.not66, label %38, label %30

30:                                               ; preds = %28
  %31 = load i32, ptr %4, align 8
  %32 = getelementptr inbounds nuw i8, ptr %0, i64 20
  store i32 %31, ptr %32, align 4
  %33 = tail call i32 @slice_del(ptr noundef nonnull %0) #2
  %34 = icmp sgt i32 %33, -1
  br i1 %34, label %35, label %59

35:                                               ; preds = %30
  %36 = getelementptr inbounds nuw i8, ptr %0, i64 40
  %37 = load ptr, ptr %36, align 8
  store i32 0, ptr %37, align 4
  br label %38

38:                                               ; preds = %35, %22, %15, %28
  %39 = load i32, ptr %2, align 4
  %40 = add i32 %39, %.neg
  store i32 %40, ptr %4, align 8
  store i32 %40, ptr %18, align 8
  %41 = tail call i32 @eq_s_b(ptr noundef nonnull %0, i32 noundef 6, ptr noundef nonnull @s_74) #2
  %.not68 = icmp eq i32 %41, 0
  br i1 %.not68, label %59, label %42

42:                                               ; preds = %38
  %43 = load i32, ptr %4, align 8
  %44 = getelementptr inbounds nuw i8, ptr %0, i64 20
  store i32 %43, ptr %44, align 4
  %45 = tail call i32 @slice_del(ptr noundef nonnull %0) #2
  %46 = icmp sgt i32 %45, -1
  br i1 %46, label %47, label %59

47:                                               ; preds = %42
  %48 = getelementptr inbounds nuw i8, ptr %0, i64 40
  %49 = load ptr, ptr %48, align 8
  store i32 0, ptr %49, align 4
  %50 = load i32, ptr %4, align 8
  store i32 %50, ptr %18, align 8
  store i32 %50, ptr %44, align 4
  %51 = tail call i32 @find_among_b(ptr noundef nonnull %0, ptr noundef nonnull @a_36, i32 noundef 12) #2
  %.not69 = icmp eq i32 %51, 0
  br i1 %.not69, label %59, label %52

52:                                               ; preds = %47
  %53 = load i32, ptr %4, align 8
  %54 = load i32, ptr %20, align 8
  %55 = icmp sgt i32 %53, %54
  br i1 %55, label %59, label %56

56:                                               ; preds = %52
  %57 = tail call i32 @slice_from_s(ptr noundef nonnull %0, i32 noundef 4, ptr noundef nonnull @s_75) #2
  %58 = icmp sgt i32 %57, -1
  %spec.select = select i1 %58, i32 1, i32 %57
  br label %59

59:                                               ; preds = %30, %12, %56, %42, %52, %47, %38
  %.3 = phi i32 [ %45, %42 ], [ 0, %38 ], [ 0, %47 ], [ 0, %52 ], [ %spec.select, %56 ], [ %13, %12 ], [ %33, %30 ]
  ret i32 %.3
}